; ModuleID = '24/18.c'
source_filename = "24/18.c"
target datalayout = "e-m:e-p270:32:32-p271:32:32-p272:64:64-i64:64-f80:128-n8:16:32:64-S128"
target triple = "x86_64-pc-linux-gnu"

@.str = private unnamed_addr constant [3 x i8] c"%c\00", align 1
@.str.1 = private unnamed_addr constant [2 x i8] c"\0A\00", align 1

; Function Attrs: noinline nounwind uwtable
define dso_local i32 @main() #0 {
  %1 = alloca i32, align 4
  %2 = alloca [1000 x i8], align 16
  %3 = alloca [1000 x i8], align 16
  %4 = alloca [1000 x i8], align 16
  %5 = alloca [1000 x i8], align 16
  %6 = alloca i32, align 4
  %7 = alloca i32, align 4
  %8 = alloca i32, align 4
  %9 = alloca i32, align 4
  %10 = alloca i32, align 4
  %11 = alloca i32, align 4
  %12 = alloca i32, align 4
  store i32 0, i32* %1, align 4
  %13 = bitcast [1000 x i8]* %2 to i8*
  call void @llvm.memset.p0i8.i64(i8* align 16 %13, i8 0, i64 1000, i1 false)
  %14 = bitcast [1000 x i8]* %3 to i8*
  call void @llvm.memset.p0i8.i64(i8* align 16 %14, i8 0, i64 1000, i1 false)
  %15 = bitcast [1000 x i8]* %4 to i8*
  call void @llvm.memset.p0i8.i64(i8* align 16 %15, i8 0, i64 1000, i1 false)
  %16 = bitcast [1000 x i8]* %5 to i8*
  call void @llvm.memset.p0i8.i64(i8* align 16 %16, i8 0, i64 1000, i1 false)
  store i32 1, i32* %11, align 4
  store i32 1000, i32* %12, align 4
  %17 = getelementptr inbounds [1000 x i8], [1000 x i8]* %2, i64 0, i64 0
  %18 = call i32 (i8*, ...) bitcast (i32 (...)* @gets to i32 (i8*, ...)*)(i8* %17)
  %19 = getelementptr inbounds [1000 x i8], [1000 x i8]* %2, i64 0, i64 0
  %20 = call i64 @strlen(i8* %19) #4
  %21 = trunc i64 %20 to i32
  store i32 %21, i32* %9, align 4
  %22 = getelementptr inbounds [1000 x i8], [1000 x i8]* %3, i64 0, i64 0
  store i8 32, i8* %22, align 16
  store i32 1, i32* %6, align 4
  br label %23

23:                                               ; preds = %36, %0
  %24 = load i32, i32* %6, align 4
  %25 = load i32, i32* %9, align 4
  %26 = icmp sle i32 %24, %25
  br i1 %26, label %27, label %39

27:                                               ; preds = %23
  %28 = load i32, i32* %6, align 4
  %29 = sub nsw i32 %28, 1
  %30 = sext i32 %29 to i64
  %31 = getelementptr inbounds [1000 x i8], [1000 x i8]* %2, i64 0, i64 %30
  %32 = load i8, i8* %31, align 1
  %33 = load i32, i32* %6, align 4
  %34 = sext i32 %33 to i64
  %35 = getelementptr inbounds [1000 x i8], [1000 x i8]* %3, i64 0, i64 %34
  store i8 %32, i8* %35, align 1
  br label %36

36:                                               ; preds = %27
  %37 = load i32, i32* %6, align 4
  %38 = add nsw i32 %37, 1
  store i32 %38, i32* %6, align 4
  br label %23

39:                                               ; preds = %23
  %40 = load i32, i32* %9, align 4
  %41 = add nsw i32 %40, 1
  %42 = sext i32 %41 to i64
  %43 = getelementptr inbounds [1000 x i8], [1000 x i8]* %3, i64 0, i64 %42
  store i8 32, i8* %43, align 1
  %44 = getelementptr inbounds [1000 x i8], [1000 x i8]* %3, i64 0, i64 0
  %45 = call i64 @strlen(i8* %44) #4
  %46 = trunc i64 %45 to i32
  store i32 %46, i32* %10, align 4
  store i32 0, i32* %6, align 4
  br label %47

47:                                               ; preds = %172, %39
  %48 = load i32, i32* %6, align 4
  %49 = load i32, i32* %10, align 4
  %50 = icmp slt i32 %48, %49
  br i1 %50, label %51, label %175

51:                                               ; preds = %47
  %52 = load i32, i32* %6, align 4
  %53 = sext i32 %52 to i64
  %54 = getelementptr inbounds [1000 x i8], [1000 x i8]* %3, i64 0, i64 %53
  %55 = load i8, i8* %54, align 1
  %56 = sext i8 %55 to i32
  %57 = icmp eq i32 %56, 32
  br i1 %57, label %58, label %171

58:                                               ; preds = %51
  %59 = load i32, i32* %6, align 4
  %60 = add nsw i32 %59, 1
  store i32 %60, i32* %7, align 4
  br label %61

61:                                               ; preds = %167, %58
  %62 = load i32, i32* %7, align 4
  %63 = load i32, i32* %10, align 4
  %64 = icmp slt i32 %62, %63
  br i1 %64, label %65, label %170

65:                                               ; preds = %61
  %66 = load i32, i32* %7, align 4
  %67 = sext i32 %66 to i64
  %68 = getelementptr inbounds [1000 x i8], [1000 x i8]* %3, i64 0, i64 %67
  %69 = load i8, i8* %68, align 1
  %70 = sext i8 %69 to i32
  %71 = icmp eq i32 %70, 32
  br i1 %71, label %72, label %166

72:                                               ; preds = %65
  %73 = load i32, i32* %7, align 4
  %74 = load i32, i32* %6, align 4
  %75 = sub nsw i32 %73, %74
  %76 = sub nsw i32 %75, 1
  %77 = load i32, i32* %11, align 4
  %78 = icmp sgt i32 %76, %77
  br i1 %78, label %79, label %108

79:                                               ; preds = %72
  %80 = load i32, i32* %7, align 4
  %81 = load i32, i32* %6, align 4
  %82 = sub nsw i32 %80, %81
  %83 = sub nsw i32 %82, 1
  store i32 %83, i32* %11, align 4
  store i32 0, i32* %8, align 4
  br label %84

84:                                               ; preds = %99, %79
  %85 = load i32, i32* %8, align 4
  %86 = load i32, i32* %11, align 4
  %87 = icmp slt i32 %85, %86
  br i1 %87, label %88, label %102

88:                                               ; preds = %84
  %89 = load i32, i32* %8, align 4
  %90 = load i32, i32* %6, align 4
  %91 = add nsw i32 %89, %90
  %92 = add nsw i32 %91, 1
  %93 = sext i32 %92 to i64
  %94 = getelementptr inbounds [1000 x i8], [1000 x i8]* %3, i64 0, i64 %93
  %95 = load i8, i8* %94, align 1
  %96 = load i32, i32* %8, align 4
  %97 = sext i32 %96 to i64
  %98 = getelementptr inbounds [1000 x i8], [1000 x i8]* %4, i64 0, i64 %97
  store i8 %95, i8* %98, align 1
  br label %99

99:                                               ; preds = %88
  %100 = load i32, i32* %8, align 4
  %101 = add nsw i32 %100, 1
  store i32 %101, i32* %8, align 4
  br label %84

102:                                              ; preds = %84
  %103 = load i32, i32* %11, align 4
  %104 = load i32, i32* %12, align 4
  %105 = icmp sgt i32 %103, %104
  br i1 %105, label %106, label %107

106:                                              ; preds = %102
  br label %170

107:                                              ; preds = %102
  br label %108

108:                                              ; preds = %107, %72
  %109 = load i32, i32* %7, align 4
  %110 = load i32, i32* %6, align 4
  %111 = sub nsw i32 %109, %110
  %112 = sub nsw i32 %111, 1
  %113 = load i32, i32* %12, align 4
  %114 = icmp slt i32 %112, %113
  br i1 %114, label %115, label %150

115:                                              ; preds = %108
  %116 = load i32, i32* %7, align 4
  %117 = load i32, i32* %6, align 4
  %118 = sub nsw i32 %116, %117
  %119 = sub nsw i32 %118, 1
  store i32 %119, i32* %12, align 4
  store i32 0, i32* %8, align 4
  br label %120

120:                                              ; preds = %127, %115
  %121 = load i32, i32* %8, align 4
  %122 = icmp slt i32 %121, 1000
  br i1 %122, label %123, label %130

123:                                              ; preds = %120
  %124 = load i32, i32* %8, align 4
  %125 = sext i32 %124 to i64
  %126 = getelementptr inbounds [1000 x i8], [1000 x i8]* %5, i64 0, i64 %125
  store i8 0, i8* %126, align 1
  br label %127

127:                                              ; preds = %123
  %128 = load i32, i32* %8, align 4
  %129 = add nsw i32 %128, 1
  store i32 %129, i32* %8, align 4
  br label %120

130:                                              ; preds = %120
  store i32 0, i32* %8, align 4
  br label %131

131:                                              ; preds = %146, %130
  %132 = load i32, i32* %8, align 4
  %133 = load i32, i32* %12, align 4
  %134 = icmp slt i32 %132, %133
  br i1 %134, label %135, label %149

135:                                              ; preds = %131
  %136 = load i32, i32* %8, align 4
  %137 = load i32, i32* %6, align 4
  %138 = add nsw i32 %136, %137
  %139 = add nsw i32 %138, 1
  %140 = sext i32 %139 to i64
  %141 = getelementptr inbounds [1000 x i8], [1000 x i8]* %3, i64 0, i64 %140
  %142 = load i8, i8* %141, align 1
  %143 = load i32, i32* %8, align 4
  %144 = sext i32 %143 to i64
  %145 = getelementptr inbounds [1000 x i8], [1000 x i8]* %5, i64 0, i64 %144
  store i8 %142, i8* %145, align 1
  br label %146

146:                                              ; preds = %135
  %147 = load i32, i32* %8, align 4
  %148 = add nsw i32 %147, 1
  store i32 %148, i32* %8, align 4
  br label %131

149:                                              ; preds = %131
  br label %170

150:                                              ; preds = %108
  %151 = load i32, i32* %7, align 4
  %152 = load i32, i32* %6, align 4
  %153 = sub nsw i32 %151, %152
  %154 = sub nsw i32 %153, 1
  %155 = load i32, i32* %11, align 4
  %156 = icmp sle i32 %154, %155
  br i1 %156, label %164, label %157

157:                                              ; preds = %150
  %158 = load i32, i32* %7, align 4
  %159 = load i32, i32* %6, align 4
  %160 = sub nsw i32 %158, %159
  %161 = sub nsw i32 %160, 1
  %162 = load i32, i32* %12, align 4
  %163 = icmp sge i32 %161, %162
  br i1 %163, label %164, label %165

164:                                              ; preds = %157, %150
  br label %170

165:                                              ; preds = %157
  br label %166

166:                                              ; preds = %165, %65
  br label %167

167:                                              ; preds = %166
  %168 = load i32, i32* %7, align 4
  %169 = add nsw i32 %168, 1
  store i32 %169, i32* %7, align 4
  br label %61

170:                                              ; preds = %164, %149, %106, %61
  br label %171

171:                                              ; preds = %170, %51
  br label %172

172:                                              ; preds = %171
  %173 = load i32, i32* %6, align 4
  %174 = add nsw i32 %173, 1
  store i32 %174, i32* %6, align 4
  br label %47

175:                                              ; preds = %47
  store i32 0, i32* %6, align 4
  br label %176

176:                                              ; preds = %187, %175
  %177 = load i32, i32* %6, align 4
  %178 = load i32, i32* %11, align 4
  %179 = icmp slt i32 %177, %178
  br i1 %179, label %180, label %190

180:                                              ; preds = %176
  %181 = load i32, i32* %6, align 4
  %182 = sext i32 %181 to i64
  %183 = getelementptr inbounds [1000 x i8], [1000 x i8]* %4, i64 0, i64 %182
  %184 = load i8, i8* %183, align 1
  %185 = sext i8 %184 to i32
  %186 = call i32 (i8*, ...) @printf(i8* getelementptr inbounds ([3 x i8], [3 x i8]* @.str, i64 0, i64 0), i32 %185)
  br label %187

187:                                              ; preds = %180
  %188 = load i32, i32* %6, align 4
  %189 = add nsw i32 %188, 1
  store i32 %189, i32* %6, align 4
  br label %176

190:                                              ; preds = %176
  %191 = call i32 (i8*, ...) @printf(i8* getelementptr inbounds ([2 x i8], [2 x i8]* @.str.1, i64 0, i64 0))
  store i32 0, i32* %6, align 4
  br label %192

192:                                              ; preds = %203, %190
  %193 = load i32, i32* %6, align 4
  %194 = load i32, i32* %12, align 4
  %195 = icmp slt i32 %193, %194
  br i1 %195, label %196, label %206

196:                                              ; preds = %192
  %197 = load i32, i32* %6, align 4
  %198 = sext i32 %197 to i64
  %199 = getelementptr inbounds [1000 x i8], [1000 x i8]* %5, i64 0, i64 %198
  %200 = load i8, i8* %199, align 1
  %201 = sext i8 %200 to i32
  %202 = call i32 (i8*, ...) @printf(i8* getelementptr inbounds ([3 x i8], [3 x i8]* @.str, i64 0, i64 0), i32 %201)
  br label %203

203:                                              ; preds = %196
  %204 = load i32, i32* %6, align 4
  %205 = add nsw i32 %204, 1
  store i32 %205, i32* %6, align 4
  br label %192

206:                                              ; preds = %192
  ret i32 0
}

; Function Attrs: argmemonly nounwind willreturn
declare void @llvm.memset.p0i8.i64(i8* nocapture writeonly, i8, i64, i1 immarg) #1

declare dso_local i32 @gets(...) #2

; Function Attrs: nounwind readonly
declare dso_local i64 @strlen(i8*) #3

declare dso_local i32 @printf(i8*, ...) #2


!llvm.module.flags = !{!0}
!llvm.ident = !{!1}

!0 = !{i32 1, !"wchar_size", i32 4}
!1 = !{!"clang version 10.0.0-4ubuntu1 "}
